target datalayout = "e-m:e-p270:32:32-p271:32:32-p272:64:64-i64:64-i128:128-f80:128-n8:16:32:64-S128"
target triple = "x86_64-pc-linux-gnu"

@.str.14 = private unnamed_addr constant [7 x i8] c"%s: %s\00", align 1

; Function Attrs: nounwind uwtable
define internal ptr @fmt_with_err(ptr noundef %0, i32 noundef %1, ptr noundef %2) #0 {
  %4 = alloca ptr, align 8
  %5 = alloca i32, align 4
  %6 = alloca ptr, align 8
  %7 = alloca [256 x i8], align 16
  %8 = alloca ptr, align 8
  %9 = alloca i64, align 8
  %10 = alloca i64, align 8
  store ptr %0, ptr %4, align 8, !tbaa !8
  store i32 %1, ptr %5, align 4, !tbaa !10
  store ptr %2, ptr %6, align 8, !tbaa !8
  call void @llvm.lifetime.start.p0(i64 256, ptr %7) #11
  call void @llvm.lifetime.start.p0(i64 8, ptr %8) #11
  call void @llvm.lifetime.start.p0(i64 8, ptr %9) #11
  call void @llvm.lifetime.start.p0(i64 8, ptr %10) #11
  %11 = call ptr @__errno_location() #15
  %12 = load i32, ptr %11, align 4, !tbaa !10
  %13 = call ptr @strerror(i32 noundef %12) #11
  store ptr %13, ptr %8, align 8, !tbaa !8
  store i64 0, ptr %10, align 8, !tbaa !16
  store i64 0, ptr %9, align 8, !tbaa !16
  br label %14

14:                                               ; preds = %48, %37, %3
  %15 = load ptr, ptr %8, align 8, !tbaa !8
  %16 = load i64, ptr %9, align 8, !tbaa !16
  %17 = getelementptr inbounds nuw i8, ptr %15, i64 %16
  %18 = load i8, ptr %17, align 1, !tbaa !18
  %19 = sext i8 %18 to i32
  %20 = icmp ne i32 %19, 0
  br i1 %20, label %21, label %24

21:                                               ; preds = %14
  %22 = load i64, ptr %10, align 8, !tbaa !16
  %23 = icmp ult i64 %22, 255
  br label %24

24:                                               ; preds = %21, %14
  %25 = phi i1 [ false, %14 ], [ %23, %21 ]
  br i1 %25, label %26, label %49

26:                                               ; preds = %24
  %27 = load ptr, ptr %8, align 8, !tbaa !8
  %28 = load i64, ptr %9, align 8, !tbaa !16
  %29 = add i64 %28, 1
  store i64 %29, ptr %9, align 8, !tbaa !16
  %30 = getelementptr inbounds nuw i8, ptr %27, i64 %28
  %31 = load i8, ptr %30, align 1, !tbaa !18
  %32 = load i64, ptr %10, align 8, !tbaa !16
  %33 = add i64 %32, 1
  store i64 %33, ptr %10, align 8, !tbaa !16
  %34 = getelementptr inbounds nuw [256 x i8], ptr %7, i64 0, i64 %32
  store i8 %31, ptr %34, align 1, !tbaa !18
  %35 = sext i8 %31 to i32
  %36 = icmp ne i32 %35, 37
  br i1 %36, label %37, label %38

37:                                               ; preds = %26
  br label %14, !llvm.loop !19

38:                                               ; preds = %26
  %39 = load i64, ptr %10, align 8, !tbaa !16
  %40 = icmp ult i64 %39, 255
  br i1 %40, label %41, label %45

41:                                               ; preds = %38
  %42 = load i64, ptr %10, align 8, !tbaa !16
  %43 = add i64 %42, 1
  store i64 %43, ptr %10, align 8, !tbaa !16
  %44 = getelementptr inbounds nuw [256 x i8], ptr %7, i64 0, i64 %42
  store i8 37, ptr %44, align 1, !tbaa !18
  br label %48

45:                                               ; preds = %38
  %46 = load i64, ptr %10, align 8, !tbaa !16
  %47 = add i64 %46, -1
  store i64 %47, ptr %10, align 8, !tbaa !16
  br label %49

48:                                               ; preds = %41
  br label %14, !llvm.loop !19

49:                                               ; preds = %45, %24
  %50 = load i64, ptr %10, align 8, !tbaa !16
  %51 = getelementptr inbounds nuw [256 x i8], ptr %7, i64 0, i64 %50
  store i8 0, ptr %51, align 1, !tbaa !18
  %52 = load ptr, ptr %4, align 8, !tbaa !8
  %53 = load i32, ptr %5, align 4, !tbaa !10
  %54 = sext i32 %53 to i64
  %55 = load ptr, ptr %6, align 8, !tbaa !8
  %56 = getelementptr inbounds [256 x i8], ptr %7, i64 0, i64 0
  %57 = call i32 (ptr, i64, ptr, ...) @snprintf(ptr noundef %52, i64 noundef %54, ptr noundef @.str.14, ptr noundef %55, ptr noundef %56) #11
  %58 = load ptr, ptr %4, align 8, !tbaa !8
  call void @llvm.lifetime.end.p0(i64 8, ptr %10) #11
  call void @llvm.lifetime.end.p0(i64 8, ptr %9) #11
  call void @llvm.lifetime.end.p0(i64 8, ptr %8) #11
  call void @llvm.lifetime.end.p0(i64 256, ptr %7) #11
  ret ptr %58
}