; Function Attrs: nounwind uwtable
define internal fastcc noundef nonnull ptr @fmt_with_err(ptr noundef nonnull returned writeonly %0, ptr noundef %1) unnamed_addr #6 {
  %3 = alloca [256 x i8], align 16
  call void @llvm.lifetime.start.p0(i64 256, ptr nonnull %3) #17
  %4 = tail call ptr @__errno_location() #21
  %5 = load i32, ptr %4, align 4, !tbaa !12
  %6 = tail call ptr @strerror(i32 noundef %5) #17
  %7 = load i8, ptr %6, align 1, !tbaa !14
  %.not20 = icmp eq i8 %7, 0
  br i1 %.not20, label %._crit_edge, label %.lr.ph

.lr.ph:                                           ; preds = %2, %.backedge
  %8 = phi i8 [ %18, %.backedge ], [ %7, %2 ]
  %.017 = phi i64 [ %.0.be, %.backedge ], [ 0, %2 ]
  %.01316 = phi i64 [ %9, %.backedge ], [ 0, %2 ]
  %9 = add i64 %.01316, 1
  %10 = add nuw nsw i64 %.017, 1
  %11 = getelementptr inbounds nuw [256 x i8], ptr %3, i64 0, i64 %.017
  store i8 %8, ptr %11, align 1, !tbaa !14
  %.not = icmp eq i8 %8, 37
  br i1 %.not, label %12, label %.backedge

12:                                               ; preds = %.lr.ph
  %13 = icmp samesign ult i64 %.017, 254
  br i1 %13, label %14, label %._crit_edge

14:                                               ; preds = %12
  %15 = add nuw nsw i64 %.017, 2
  %16 = getelementptr inbounds nuw [256 x i8], ptr %3, i64 0, i64 %10
  store i8 37, ptr %16, align 1, !tbaa !14
  br label %.backedge

.backedge:                                        ; preds = %14, %.lr.ph
  %.0.be = phi i64 [ %10, %.lr.ph ], [ %15, %14 ]
  %17 = getelementptr inbounds nuw i8, ptr %6, i64 %9
  %18 = load i8, ptr %17, align 1, !tbaa !14
  %19 = icmp ne i8 %18, 0
  %20 = icmp ult i64 %.0.be, 255
  %21 = select i1 %19, i1 %20, i1 false
  br i1 %21, label %.lr.ph, label %._crit_edge, !llvm.loop !15

._crit_edge:                                      ; preds = %.backedge, %12, %2
  %.0.lcssa = phi i64 [ 0, %2 ], [ %.017, %12 ], [ %.0.be, %.backedge ]
  %22 = getelementptr inbounds nuw [256 x i8], ptr %3, i64 0, i64 %.0.lcssa
  store i8 0, ptr %22, align 1, !tbaa !14
  %23 = call i32 (ptr, i64, ptr, ...) @snprintf(ptr noundef nonnull dereferenceable(1) %0, i64 noundef 1024, ptr noundef nonnull @.str.14, ptr noundef %1, ptr noundef nonnull %3) #17
  call void @llvm.lifetime.end.p0(i64 256, ptr nonnull %3) #17
  ret ptr %0
}